target datalayout = "e-m:e-p270:32:32-p271:32:32-p272:64:64-i64:64-i128:128-f80:128-n8:16:32:64-S128"
target triple = "x86_64-pc-linux-gnu"

%struct.expert_field = type { i32, i32 }
%struct._packet_info = type { ptr, ptr, i32, i32, %struct.nstime_t, %struct.nstime_t, %struct.nstime_t, i8, ptr, ptr, ptr, ptr, %struct._address, %struct._address, %struct._address, %struct._address, %struct._address, %struct._address, i32, ptr, i8, [3 x i8], %struct.anon, i32, i32, i32, i32, ptr, i8, ptr, ptr, i16, i16, i32, i32, i16, i32, i32, ptr, ptr, ptr, i8, i8, i16, i16, i16, i32, i16, i16, ptr, ptr, ptr, ptr, ptr, i32, i32 }
%struct.nstime_t = type { i64, i32 }
%struct._address = type { i32, i32, ptr, ptr }
%struct.anon = type { i8, [3 x i8] }

@hf_isis_lsp_ip_reachability_ipv4_prefix = internal global i32 0, align 4
@hf_isis_lsp_ip_reachability_default_metric = internal global i32 0, align 4
@hf_isis_lsp_ip_reachability_delay_metric = internal global i32 0, align 4
@hf_isis_lsp_ip_reachability_expense_metric = internal global i32 0, align 4
@hf_isis_lsp_ip_reachability_error_metric = internal global i32 0, align 4
@hf_isis_lsp_ip_reachability_default_metric_ie = internal global i32 0, align 4
@hf_isis_lsp_ip_reachability_delay_metric_support = internal global i32 0, align 4
@hf_isis_lsp_ip_reachability_expense_metric_support = internal global i32 0, align 4
@hf_isis_lsp_ip_reachability_error_metric_support = internal global i32 0, align 4
@hf_isis_lsp_ip_reachability_distribution = internal global i32 0, align 4
@hf_isis_lsp_ip_reachability_delay_metric_ie = internal global i32 0, align 4
@hf_isis_lsp_ip_reachability_expense_metric_ie = internal global i32 0, align 4
@hf_isis_lsp_ip_reachability_error_metric_ie = internal global i32 0, align 4
@ett_isis_lsp_clv_ip_reachability = internal global i32 0, align 4
@ei_isis_lsp_short_clv = internal global %struct.expert_field zeroinitializer, align 4
@.str.857 = private unnamed_addr constant [33 x i8] c"short IP reachability (%d vs 12)\00", align 1
@.str.858 = private unnamed_addr constant [6 x i8] c"%s/%d\00", align 1
@.str.859 = private unnamed_addr constant [11 x i8] c"%s mask %s\00", align 1

; Function Attrs: null_pointer_is_valid sspstrong uwtable
define internal void @dissect_lsp_ip_reachability_clv(ptr noundef %0, ptr noundef %1, ptr noundef %2, i32 noundef %3, ptr noundef %4, i32 noundef %5) #0 {
  %7 = alloca ptr, align 8
  %8 = alloca ptr, align 8
  %9 = alloca ptr, align 8
  %10 = alloca i32, align 4
  %11 = alloca ptr, align 8
  %12 = alloca i32, align 4
  %13 = alloca ptr, align 8
  %14 = alloca ptr, align 8
  %15 = alloca i32, align 4
  %16 = alloca i32, align 4
  %17 = alloca i32, align 4
  %18 = alloca i32, align 4
  %19 = alloca i8, align 1
  %20 = alloca i32, align 4
  store ptr %0, ptr %7, align 8
  store ptr %1, ptr %8, align 8
  store ptr %2, ptr %9, align 8
  store i32 %3, ptr %10, align 4
  store ptr %4, ptr %11, align 8
  store i32 %5, ptr %12, align 4
  call void @llvm.lifetime.start.p0(i64 8, ptr %13) #4
  call void @llvm.lifetime.start.p0(i64 8, ptr %14) #4
  store ptr null, ptr %14, align 8
  call void @llvm.lifetime.start.p0(i64 4, ptr %15) #4
  call void @llvm.lifetime.start.p0(i64 4, ptr %16) #4
  call void @llvm.lifetime.start.p0(i64 4, ptr %17) #4
  call void @llvm.lifetime.start.p0(i64 4, ptr %18) #4
  call void @llvm.lifetime.start.p0(i64 1, ptr %19) #4
  store i8 0, ptr %19, align 1
  br label %21

21:                                               ; preds = %172, %6
  %22 = load i32, ptr %12, align 4
  %23 = icmp sgt i32 %22, 0
  br i1 %23, label %24, label %177

24:                                               ; preds = %21
  %25 = load i32, ptr %12, align 4
  %26 = icmp slt i32 %25, 12
  br i1 %26, label %27, label %34

27:                                               ; preds = %24
  %28 = load ptr, ptr %9, align 8
  %29 = load ptr, ptr %8, align 8
  %30 = load ptr, ptr %7, align 8
  %31 = load i32, ptr %10, align 4
  %32 = load i32, ptr %12, align 4
  %33 = call ptr (ptr, ptr, ptr, ptr, i32, i32, ptr, ...) @proto_tree_add_expert_format(ptr noundef %28, ptr noundef %29, ptr noundef @ei_isis_lsp_short_clv, ptr noundef %30, i32 noundef %31, i32 noundef -1, ptr noundef @.str.857, i32 noundef %32)
  store i32 1, ptr %20, align 4
  br label %178

34:                                               ; preds = %24
  %35 = load ptr, ptr %9, align 8
  %36 = icmp ne ptr %35, null
  br i1 %36, label %37, label %172

37:                                               ; preds = %34
  %38 = load ptr, ptr %7, align 8
  %39 = load i32, ptr %10, align 4
  %40 = add i32 %39, 4
  %41 = call i32 @tvb_get_ipv4(ptr noundef %38, i32 noundef %40)
  store i32 %41, ptr %15, align 4
  %42 = load ptr, ptr %7, align 8
  %43 = load i32, ptr %10, align 4
  %44 = add i32 %43, 8
  %45 = call i32 @tvb_get_ntohl(ptr noundef %42, i32 noundef %44)
  store i32 %45, ptr %16, align 4
  store i32 -1, ptr %17, align 4
  store i32 32, ptr %18, align 4
  br label %46

46:                                               ; preds = %57, %37
  %47 = load i32, ptr %18, align 4
  %48 = icmp sge i32 %47, 0
  br i1 %48, label %49, label %60

49:                                               ; preds = %46
  %50 = load i32, ptr %17, align 4
  %51 = load i32, ptr %16, align 4
  %52 = icmp eq i32 %50, %51
  br i1 %52, label %53, label %54

53:                                               ; preds = %49
  store i8 1, ptr %19, align 1
  br label %60

54:                                               ; preds = %49
  %55 = load i32, ptr %17, align 4
  %56 = shl i32 %55, 1
  store i32 %56, ptr %17, align 4
  br label %57

57:                                               ; preds = %54
  %58 = load i32, ptr %18, align 4
  %59 = add i32 %58, -1
  store i32 %59, ptr %18, align 4
  br label %46, !llvm.loop !10

60:                                               ; preds = %53, %46
  %61 = load i8, ptr %19, align 1, !range !6, !noundef !7
  %62 = trunc i8 %61 to i1
  br i1 %62, label %63, label %78

63:                                               ; preds = %60
  %64 = load ptr, ptr %9, align 8
  %65 = load i32, ptr @hf_isis_lsp_ip_reachability_ipv4_prefix, align 4
  %66 = load ptr, ptr %7, align 8
  %67 = load i32, ptr %10, align 4
  %68 = load i32, ptr %15, align 4
  %69 = load ptr, ptr %8, align 8
  %70 = getelementptr inbounds nuw %struct._packet_info, ptr %69, i32 0, i32 51
  %71 = load ptr, ptr %70, align 8
  %72 = load ptr, ptr %7, align 8
  %73 = load i32, ptr %10, align 4
  %74 = add i32 %73, 4
  %75 = call ptr @tvb_address_to_str(ptr noundef %71, ptr noundef %72, i32 noundef 2, i32 noundef %74)
  %76 = load i32, ptr %18, align 4
  %77 = call ptr (ptr, i32, ptr, i32, i32, i32, ptr, ...) @proto_tree_add_ipv4_format_value(ptr noundef %64, i32 noundef %65, ptr noundef %66, i32 noundef %67, i32 noundef 12, i32 noundef %68, ptr noundef @.str.858, ptr noundef %75, i32 noundef %76)
  store ptr %77, ptr %13, align 8
  br label %99

78:                                               ; preds = %60
  %79 = load ptr, ptr %9, align 8
  %80 = load i32, ptr @hf_isis_lsp_ip_reachability_ipv4_prefix, align 4
  %81 = load ptr, ptr %7, align 8
  %82 = load i32, ptr %10, align 4
  %83 = load i32, ptr %15, align 4
  %84 = load ptr, ptr %8, align 8
  %85 = getelementptr inbounds nuw %struct._packet_info, ptr %84, i32 0, i32 51
  %86 = load ptr, ptr %85, align 8
  %87 = load ptr, ptr %7, align 8
  %88 = load i32, ptr %10, align 4
  %89 = add i32 %88, 4
  %90 = call ptr @tvb_address_to_str(ptr noundef %86, ptr noundef %87, i32 noundef 2, i32 noundef %89)
  %91 = load ptr, ptr %8, align 8
  %92 = getelementptr inbounds nuw %struct._packet_info, ptr %91, i32 0, i32 51
  %93 = load ptr, ptr %92, align 8
  %94 = load ptr, ptr %7, align 8
  %95 = load i32, ptr %10, align 4
  %96 = add i32 %95, 8
  %97 = call ptr @tvb_address_to_str(ptr noundef %93, ptr noundef %94, i32 noundef 2, i32 noundef %96)
  %98 = call ptr (ptr, i32, ptr, i32, i32, i32, ptr, ...) @proto_tree_add_ipv4_format_value(ptr noundef %79, i32 noundef %80, ptr noundef %81, i32 noundef %82, i32 noundef 12, i32 noundef %83, ptr noundef @.str.859, ptr noundef %90, ptr noundef %97)
  store ptr %98, ptr %13, align 8
  br label %99

99:                                               ; preds = %78, %63
  %100 = load ptr, ptr %13, align 8
  %101 = load i32, ptr @ett_isis_lsp_clv_ip_reachability, align 4
  %102 = call ptr @proto_item_add_subtree(ptr noundef %100, i32 noundef %101)
  store ptr %102, ptr %14, align 8
  %103 = load ptr, ptr %14, align 8
  %104 = load i32, ptr @hf_isis_lsp_ip_reachability_default_metric, align 4
  %105 = load ptr, ptr %7, align 8
  %106 = load i32, ptr %10, align 4
  %107 = call ptr @proto_tree_add_item(ptr noundef %103, i32 noundef %104, ptr noundef %105, i32 noundef %106, i32 noundef 1, i32 noundef 0)
  %108 = load ptr, ptr %14, align 8
  %109 = load i32, ptr @hf_isis_lsp_ip_reachability_default_metric_ie, align 4
  %110 = load ptr, ptr %7, align 8
  %111 = load i32, ptr %10, align 4
  %112 = call ptr @proto_tree_add_item(ptr noundef %108, i32 noundef %109, ptr noundef %110, i32 noundef %111, i32 noundef 1, i32 noundef 0)
  %113 = load ptr, ptr %14, align 8
  %114 = load i32, ptr @hf_isis_lsp_ip_reachability_distribution, align 4
  %115 = load ptr, ptr %7, align 8
  %116 = load i32, ptr %10, align 4
  %117 = call ptr @proto_tree_add_item(ptr noundef %113, i32 noundef %114, ptr noundef %115, i32 noundef %116, i32 noundef 1, i32 noundef 0)
  %118 = load ptr, ptr %14, align 8
  %119 = load i32, ptr @hf_isis_lsp_ip_reachability_delay_metric, align 4
  %120 = load ptr, ptr %7, align 8
  %121 = load i32, ptr %10, align 4
  %122 = add i32 %121, 1
  %123 = call ptr @proto_tree_add_item(ptr noundef %118, i32 noundef %119, ptr noundef %120, i32 noundef %122, i32 noundef 1, i32 noundef 0)
  %124 = load ptr, ptr %14, align 8
  %125 = load i32, ptr @hf_isis_lsp_ip_reachability_delay_metric_support, align 4
  %126 = load ptr, ptr %7, align 8
  %127 = load i32, ptr %10, align 4
  %128 = add i32 %127, 1
  %129 = call ptr @proto_tree_add_item(ptr noundef %124, i32 noundef %125, ptr noundef %126, i32 noundef %128, i32 noundef 1, i32 noundef 0)
  %130 = load ptr, ptr %14, align 8
  %131 = load i32, ptr @hf_isis_lsp_ip_reachability_delay_metric_ie, align 4
  %132 = load ptr, ptr %7, align 8
  %133 = load i32, ptr %10, align 4
  %134 = add i32 %133, 1
  %135 = call ptr @proto_tree_add_item(ptr noundef %130, i32 noundef %131, ptr noundef %132, i32 noundef %134, i32 noundef 1, i32 noundef 0)
  %136 = load ptr, ptr %14, align 8
  %137 = load i32, ptr @hf_isis_lsp_ip_reachability_expense_metric, align 4
  %138 = load ptr, ptr %7, align 8
  %139 = load i32, ptr %10, align 4
  %140 = add i32 %139, 2
  %141 = call ptr @proto_tree_add_item(ptr noundef %136, i32 noundef %137, ptr noundef %138, i32 noundef %140, i32 noundef 1, i32 noundef 0)
  %142 = load ptr, ptr %14, align 8
  %143 = load i32, ptr @hf_isis_lsp_ip_reachability_expense_metric_support, align 4
  %144 = load ptr, ptr %7, align 8
  %145 = load i32, ptr %10, align 4
  %146 = add i32 %145, 2
  %147 = call ptr @proto_tree_add_item(ptr noundef %142, i32 noundef %143, ptr noundef %144, i32 noundef %146, i32 noundef 1, i32 noundef 0)
  %148 = load ptr, ptr %14, align 8
  %149 = load i32, ptr @hf_isis_lsp_ip_reachability_expense_metric_ie, align 4
  %150 = load ptr, ptr %7, align 8
  %151 = load i32, ptr %10, align 4
  %152 = add i32 %151, 2
  %153 = call ptr @proto_tree_add_item(ptr noundef %148, i32 noundef %149, ptr noundef %150, i32 noundef %152, i32 noundef 1, i32 noundef 0)
  %154 = load ptr, ptr %14, align 8
  %155 = load i32, ptr @hf_isis_lsp_ip_reachability_error_metric, align 4
  %156 = load ptr, ptr %7, align 8
  %157 = load i32, ptr %10, align 4
  %158 = add i32 %157, 3
  %159 = call ptr @proto_tree_add_item(ptr noundef %154, i32 noundef %155, ptr noundef %156, i32 noundef %158, i32 noundef 1, i32 noundef 0)
  %160 = load ptr, ptr %14, align 8
  %161 = load i32, ptr @hf_isis_lsp_ip_reachability_error_metric_support, align 4
  %162 = load ptr, ptr %7, align 8
  %163 = load i32, ptr %10, align 4
  %164 = add i32 %163, 3
  %165 = call ptr @proto_tree_add_item(ptr noundef %160, i32 noundef %161, ptr noundef %162, i32 noundef %164, i32 noundef 1, i32 noundef 0)
  %166 = load ptr, ptr %14, align 8
  %167 = load i32, ptr @hf_isis_lsp_ip_reachability_error_metric_ie, align 4
  %168 = load ptr, ptr %7, align 8
  %169 = load i32, ptr %10, align 4
  %170 = add i32 %169, 3
  %171 = call ptr @proto_tree_add_item(ptr noundef %166, i32 noundef %167, ptr noundef %168, i32 noundef %170, i32 noundef 1, i32 noundef 0)
  br label %172

172:                                              ; preds = %99, %34
  %173 = load i32, ptr %10, align 4
  %174 = add i32 %173, 12
  store i32 %174, ptr %10, align 4
  %175 = load i32, ptr %12, align 4
  %176 = sub i32 %175, 12
  store i32 %176, ptr %12, align 4
  br label %21, !llvm.loop !11

177:                                              ; preds = %21
  store i32 0, ptr %20, align 4
  br label %178

178:                                              ; preds = %177, %27
  call void @llvm.lifetime.end.p0(i64 1, ptr %19) #4
  call void @llvm.lifetime.end.p0(i64 4, ptr %18) #4
  call void @llvm.lifetime.end.p0(i64 4, ptr %17) #4
  call void @llvm.lifetime.end.p0(i64 4, ptr %16) #4
  call void @llvm.lifetime.end.p0(i64 4, ptr %15) #4
  call void @llvm.lifetime.end.p0(i64 8, ptr %14) #4
  call void @llvm.lifetime.end.p0(i64 8, ptr %13) #4
  %179 = load i32, ptr %20, align 4
  switch i32 %179, label %181 [
    i32 0, label %180
    i32 1, label %180
  ]

180:                                              ; preds = %178, %178
  ret void

181:                                              ; preds = %178
  unreachable
}