; Function Attrs: null_pointer_is_valid sspstrong uwtable
define internal void @dissect_lsp_ip_reachability_clv(ptr noundef %0, ptr noundef %1, ptr noundef %2, i32 noundef %3, ptr readnone captures(none) %4, i32 noundef %5) #0 {
  %7 = icmp sgt i32 %5, 0
  br i1 %7, label %.lr.ph, label %.loopexit

.lr.ph:                                           ; preds = %6
  %.not = icmp eq ptr %2, null
  %8 = getelementptr inbounds nuw i8, ptr %1, i64 408
  br i1 %.not, label %.lr.ph.split.us, label %.lr.ph.split

.lr.ph.split.us:                                  ; preds = %.lr.ph, %10
  %.07690.us = phi i32 [ %11, %10 ], [ %3, %.lr.ph ]
  %.07789.us = phi i32 [ %12, %10 ], [ %5, %.lr.ph ]
  %9 = icmp samesign ult i32 %.07789.us, 12
  br i1 %9, label %.split.us, label %10

10:                                               ; preds = %.lr.ph.split.us
  %11 = add i32 %.07690.us, 12
  %12 = add nsw i32 %.07789.us, -12
  %.not110 = icmp eq i32 %.07789.us, 12
  br i1 %.not110, label %.loopexit, label %.lr.ph.split.us, !llvm.loop !8

.lr.ph.split:                                     ; preds = %.lr.ph, %37
  %.093 = phi i1 [ %.281, %37 ], [ false, %.lr.ph ]
  %.07690 = phi i32 [ %67, %37 ], [ %3, %.lr.ph ]
  %.07789 = phi i32 [ %68, %37 ], [ %5, %.lr.ph ]
  %13 = icmp samesign ult i32 %.07789, 12
  br i1 %13, label %.split.us, label %15

.split.us:                                        ; preds = %.lr.ph.split, %.lr.ph.split.us
  %.us-phi = phi i32 [ %.07789.us, %.lr.ph.split.us ], [ %.07789, %.lr.ph.split ]
  %.us-phi94 = phi i32 [ %.07690.us, %.lr.ph.split.us ], [ %.07690, %.lr.ph.split ]
  %14 = tail call ptr (ptr, ptr, ptr, ptr, i32, i32, ptr, ...) @proto_tree_add_expert_format(ptr noundef %2, ptr noundef %1, ptr noundef nonnull @ei_isis_lsp_short_clv, ptr noundef %0, i32 noundef %.us-phi94, i32 noundef -1, ptr noundef nonnull @.str.857, i32 noundef %.us-phi)
  br label %.loopexit

15:                                               ; preds = %.lr.ph.split
  %16 = add i32 %.07690, 4
  %17 = tail call i32 @tvb_get_ipv4(ptr noundef %0, i32 noundef %16)
  %18 = add i32 %.07690, 8
  %19 = tail call i32 @tvb_get_ntohl(ptr noundef %0, i32 noundef %18)
  br label %20

20:                                               ; preds = %15, %22
  %.07488 = phi i32 [ 32, %15 ], [ %24, %22 ]
  %.07587 = phi i32 [ -1, %15 ], [ %23, %22 ]
  %21 = icmp eq i32 %.07587, %19
  br i1 %21, label %.thread, label %22

22:                                               ; preds = %20
  %23 = shl i32 %.07587, 1
  %24 = add nsw i32 %.07488, -1
  %.not102 = icmp eq i32 %.07488, 0
  br i1 %.not102, label %25, label %20, !llvm.loop !9

25:                                               ; preds = %22
  br i1 %.093, label %.thread, label %30

.thread:                                          ; preds = %20, %25
  %.07484 = phi i32 [ -1, %25 ], [ %.07488, %20 ]
  %26 = load i32, ptr @hf_isis_lsp_ip_reachability_ipv4_prefix, align 4
  %27 = load ptr, ptr %8, align 8
  %28 = tail call ptr @tvb_address_to_str(ptr noundef %27, ptr noundef %0, i32 noundef 2, i32 noundef %16)
  %29 = tail call ptr (ptr, i32, ptr, i32, i32, i32, ptr, ...) @proto_tree_add_ipv4_format_value(ptr noundef nonnull %2, i32 noundef %26, ptr noundef %0, i32 noundef %.07690, i32 noundef 12, i32 noundef %17, ptr noundef nonnull @.str.858, ptr noundef %28, i32 noundef %.07484)
  br label %37

30:                                               ; preds = %25
  %31 = load i32, ptr @hf_isis_lsp_ip_reachability_ipv4_prefix, align 4
  %32 = load ptr, ptr %8, align 8
  %33 = tail call ptr @tvb_address_to_str(ptr noundef %32, ptr noundef %0, i32 noundef 2, i32 noundef %16)
  %34 = load ptr, ptr %8, align 8
  %35 = tail call ptr @tvb_address_to_str(ptr noundef %34, ptr noundef %0, i32 noundef 2, i32 noundef %18)
  %36 = tail call ptr (ptr, i32, ptr, i32, i32, i32, ptr, ...) @proto_tree_add_ipv4_format_value(ptr noundef nonnull %2, i32 noundef %31, ptr noundef %0, i32 noundef %.07690, i32 noundef 12, i32 noundef %17, ptr noundef nonnull @.str.859, ptr noundef %33, ptr noundef %35)
  br label %37

37:                                               ; preds = %30, %.thread
  %.281 = phi i1 [ true, %.thread ], [ false, %30 ]
  %.078 = phi ptr [ %29, %.thread ], [ %36, %30 ]
  %38 = load i32, ptr @ett_isis_lsp_clv_ip_reachability, align 4
  %39 = tail call ptr @proto_item_add_subtree(ptr noundef %.078, i32 noundef %38)
  %40 = load i32, ptr @hf_isis_lsp_ip_reachability_default_metric, align 4
  %41 = tail call ptr @proto_tree_add_item(ptr noundef %39, i32 noundef %40, ptr noundef %0, i32 noundef %.07690, i32 noundef 1, i32 noundef 0)
  %42 = load i32, ptr @hf_isis_lsp_ip_reachability_default_metric_ie, align 4
  %43 = tail call ptr @proto_tree_add_item(ptr noundef %39, i32 noundef %42, ptr noundef %0, i32 noundef %.07690, i32 noundef 1, i32 noundef 0)
  %44 = load i32, ptr @hf_isis_lsp_ip_reachability_distribution, align 4
  %45 = tail call ptr @proto_tree_add_item(ptr noundef %39, i32 noundef %44, ptr noundef %0, i32 noundef %.07690, i32 noundef 1, i32 noundef 0)
  %46 = load i32, ptr @hf_isis_lsp_ip_reachability_delay_metric, align 4
  %47 = add i32 %.07690, 1
  %48 = tail call ptr @proto_tree_add_item(ptr noundef %39, i32 noundef %46, ptr noundef %0, i32 noundef %47, i32 noundef 1, i32 noundef 0)
  %49 = load i32, ptr @hf_isis_lsp_ip_reachability_delay_metric_support, align 4
  %50 = tail call ptr @proto_tree_add_item(ptr noundef %39, i32 noundef %49, ptr noundef %0, i32 noundef %47, i32 noundef 1, i32 noundef 0)
  %51 = load i32, ptr @hf_isis_lsp_ip_reachability_delay_metric_ie, align 4
  %52 = tail call ptr @proto_tree_add_item(ptr noundef %39, i32 noundef %51, ptr noundef %0, i32 noundef %47, i32 noundef 1, i32 noundef 0)
  %53 = load i32, ptr @hf_isis_lsp_ip_reachability_expense_metric, align 4
  %54 = add i32 %.07690, 2
  %55 = tail call ptr @proto_tree_add_item(ptr noundef %39, i32 noundef %53, ptr noundef %0, i32 noundef %54, i32 noundef 1, i32 noundef 0)
  %56 = load i32, ptr @hf_isis_lsp_ip_reachability_expense_metric_support, align 4
  %57 = tail call ptr @proto_tree_add_item(ptr noundef %39, i32 noundef %56, ptr noundef %0, i32 noundef %54, i32 noundef 1, i32 noundef 0)
  %58 = load i32, ptr @hf_isis_lsp_ip_reachability_expense_metric_ie, align 4
  %59 = tail call ptr @proto_tree_add_item(ptr noundef %39, i32 noundef %58, ptr noundef %0, i32 noundef %54, i32 noundef 1, i32 noundef 0)
  %60 = load i32, ptr @hf_isis_lsp_ip_reachability_error_metric, align 4
  %61 = add i32 %.07690, 3
  %62 = tail call ptr @proto_tree_add_item(ptr noundef %39, i32 noundef %60, ptr noundef %0, i32 noundef %61, i32 noundef 1, i32 noundef 0)
  %63 = load i32, ptr @hf_isis_lsp_ip_reachability_error_metric_support, align 4
  %64 = tail call ptr @proto_tree_add_item(ptr noundef %39, i32 noundef %63, ptr noundef %0, i32 noundef %61, i32 noundef 1, i32 noundef 0)
  %65 = load i32, ptr @hf_isis_lsp_ip_reachability_error_metric_ie, align 4
  %66 = tail call ptr @proto_tree_add_item(ptr noundef %39, i32 noundef %65, ptr noundef %0, i32 noundef %61, i32 noundef 1, i32 noundef 0)
  %67 = add i32 %.07690, 12
  %68 = add nsw i32 %.07789, -12
  %69 = icmp sgt i32 %.07789, 12
  br i1 %69, label %.lr.ph.split, label %.loopexit, !llvm.loop !8

.loopexit:                                        ; preds = %37, %10, %6, %.split.us
  ret void
}